; ModuleID = 'source-C-CXX/2/2703.c'
source_filename = "source-C-CXX/2/2703.c"
target datalayout = "e-m:e-p270:32:32-p271:32:32-p272:64:64-i64:64-f80:128-n8:16:32:64-S128"
target triple = "x86_64-pc-linux-gnu"

@.str = private unnamed_addr constant [5 x i8] c"%d%d\00", align 1
@.str.1 = private unnamed_addr constant [3 x i8] c"%d\00", align 1
@.str.2 = private unnamed_addr constant [3 x i8] c"%s\00", align 1
@.str.3 = private unnamed_addr constant [4 x i8] c"yes\00", align 1
@.str.4 = private unnamed_addr constant [3 x i8] c"no\00", align 1

; Function Attrs: nofree nounwind sspstrong uwtable
define dso_local i32 @main() local_unnamed_addr #0 {
  %1 = alloca i32, align 4
  %2 = alloca i32, align 4
  %3 = bitcast i32* %1 to i8*
  call void @llvm.lifetime.start.p0i8(i64 4, i8* nonnull %3) #4
  %4 = bitcast i32* %2 to i8*
  call void @llvm.lifetime.start.p0i8(i64 4, i8* nonnull %4) #4
  %5 = call i32 (i8*, ...) @__isoc99_scanf(i8* getelementptr inbounds ([5 x i8], [5 x i8]* @.str, i64 0, i64 0), i32* nonnull %1, i32* nonnull %2)
  %6 = load i32, i32* %1, align 4, !tbaa !5
  %7 = zext i32 %6 to i64
  %8 = call i8* @llvm.stacksave()
  %9 = alloca i32, i64 %7, align 16
  %10 = load i32, i32* %1, align 4, !tbaa !5
  %11 = icmp slt i32 %10, 1
  br i1 %11, label %52, label %19

12:                                               ; preds = %19
  %13 = load i32, i32* %2, align 4
  %14 = icmp slt i32 %25, 1
  br i1 %14, label %52, label %15

15:                                               ; preds = %12
  %16 = zext i32 %25 to i64
  %17 = add nuw i32 %25, 1
  %18 = zext i32 %17 to i64
  br label %28

19:                                               ; preds = %0, %19
  %20 = phi i64 [ %24, %19 ], [ 1, %0 ]
  %21 = add nsw i64 %20, -1
  %22 = getelementptr inbounds i32, i32* %9, i64 %21
  %23 = call i32 (i8*, ...) @__isoc99_scanf(i8* getelementptr inbounds ([3 x i8], [3 x i8]* @.str.1, i64 0, i64 0), i32* nonnull %22)
  %24 = add nuw nsw i64 %20, 1
  %25 = load i32, i32* %1, align 4, !tbaa !5
  %26 = sext i32 %25 to i64
  %27 = icmp slt i64 %20, %26
  br i1 %27, label %19, label %12, !llvm.loop !9

28:                                               ; preds = %15, %46
  %29 = phi i64 [ 1, %15 ], [ %47, %46 ]
  %30 = phi i1 [ false, %15 ], [ %48, %46 ]
  %31 = icmp ugt i64 %29, 1
  br i1 %31, label %32, label %46

32:                                               ; preds = %28
  %33 = add nsw i64 %29, -1
  %34 = getelementptr inbounds i32, i32* %9, i64 %33
  %35 = load i32, i32* %34, align 4, !tbaa !5
  br label %38

36:                                               ; preds = %38
  %37 = icmp eq i64 %45, %29
  br i1 %37, label %46, label %38, !llvm.loop !11

38:                                               ; preds = %32, %36
  %39 = phi i64 [ 1, %32 ], [ %45, %36 ]
  %40 = add nsw i64 %39, -1
  %41 = getelementptr inbounds i32, i32* %9, i64 %40
  %42 = load i32, i32* %41, align 4, !tbaa !5
  %43 = add nsw i32 %42, %35
  %44 = icmp eq i32 %43, %13
  %45 = add nuw nsw i64 %39, 1
  br i1 %44, label %50, label %36

46:                                               ; preds = %36, %28
  %47 = add nuw nsw i64 %29, 1
  %48 = icmp uge i64 %29, %16
  %49 = icmp eq i64 %47, %18
  br i1 %49, label %52, label %28, !llvm.loop !12

50:                                               ; preds = %38
  %51 = call i32 (i8*, ...) @printf(i8* nonnull dereferenceable(1) getelementptr inbounds ([3 x i8], [3 x i8]* @.str.2, i64 0, i64 0), i8* getelementptr inbounds ([4 x i8], [4 x i8]* @.str.3, i64 0, i64 0))
  br i1 %30, label %52, label %54

52:                                               ; preds = %46, %0, %12, %50
  %53 = call i32 (i8*, ...) @printf(i8* nonnull dereferenceable(1) getelementptr inbounds ([3 x i8], [3 x i8]* @.str.2, i64 0, i64 0), i8* getelementptr inbounds ([3 x i8], [3 x i8]* @.str.4, i64 0, i64 0))
  br label %54

54:                                               ; preds = %52, %50
  call void @llvm.stackrestore(i8* %8)
  call void @llvm.lifetime.end.p0i8(i64 4, i8* nonnull %4) #4
  call void @llvm.lifetime.end.p0i8(i64 4, i8* nonnull %3) #4
  ret i32 0
}

; Function Attrs: argmemonly mustprogress nofree nosync nounwind willreturn
declare void @llvm.lifetime.start.p0i8(i64 immarg, i8* nocapture) #1

; Function Attrs: nofree nounwind
declare noundef i32 @__isoc99_scanf(i8* nocapture noundef readonly, ...) local_unnamed_addr #2

; Function Attrs: mustprogress nofree nosync nounwind willreturn
declare i8* @llvm.stacksave() #3

; Function Attrs: nofree nounwind
declare noundef i32 @printf(i8* nocapture noundef readonly, ...) local_unnamed_addr #2

; Function Attrs: mustprogress nofree nosync nounwind willreturn
declare void @llvm.stackrestore(i8*) #3

; Function Attrs: argmemonly mustprogress nofree nosync nounwind willreturn
declare void @llvm.lifetime.end.p0i8(i64 immarg, i8* nocapture) #1


!llvm.module.flags = !{!0, !1, !2, !3}
!llvm.ident = !{!4}

!0 = !{i32 1, !"wchar_size", i32 4}
!1 = !{i32 7, !"PIC Level", i32 2}
!2 = !{i32 7, !"PIE Level", i32 2}
!3 = !{i32 7, !"uwtable", i32 1}
!4 = !{!"clang version 13.0.0"}
!5 = !{!6, !6, i64 0}
!6 = !{!"int", !7, i64 0}
!7 = !{!"omnipotent char", !8, i64 0}
!8 = !{!"Simple C/C++ TBAA"}
!9 = distinct !{!9, !10}
!10 = !{!"llvm.loop.mustprogress"}
!11 = distinct !{!11, !10}
!12 = distinct !{!12, !10}
